; ModuleID = 'source-C-CXX/2/1952.cpp'
source_filename = "source-C-CXX/2/1952.cpp"
target datalayout = "e-m:e-p270:32:32-p271:32:32-p272:64:64-i64:64-f80:128-n8:16:32:64-S128"
target triple = "x86_64-pc-linux-gnu"

%"class.std::ios_base::Init" = type { i8 }
%"class.std::basic_istream" = type { i32 (...)**, i64, %"class.std::basic_ios" }
%"class.std::basic_ios" = type { %"class.std::ios_base", %"class.std::basic_ostream"*, i8, i8, %"class.std::basic_streambuf"*, %"class.std::ctype"*, %"class.std::num_put"*, %"class.std::num_get"* }
%"class.std::ios_base" = type { i32 (...)**, i64, i64, i32, i32, i32, %"struct.std::ios_base::_Callback_list"*, %"struct.std::ios_base::_Words", [8 x %"struct.std::ios_base::_Words"], i32, %"struct.std::ios_base::_Words"*, %"class.std::locale" }
%"struct.std::ios_base::_Callback_list" = type { %"struct.std::ios_base::_Callback_list"*, void (i32, %"class.std::ios_base"*, i32)*, i32, i32 }
%"struct.std::ios_base::_Words" = type { i8*, i64 }
%"class.std::locale" = type { %"class.std::locale::_Impl"* }
%"class.std::locale::_Impl" = type { i32, %"class.std::locale::facet"**, i64, %"class.std::locale::facet"**, i8** }
%"class.std::locale::facet" = type <{ i32 (...)**, i32, [4 x i8] }>
%"class.std::basic_ostream" = type { i32 (...)**, %"class.std::basic_ios" }
%"class.std::basic_streambuf" = type { i32 (...)**, i8*, i8*, i8*, i8*, i8*, i8*, %"class.std::locale" }
%"class.std::ctype" = type <{ %"class.std::locale::facet.base", [4 x i8], %struct.__locale_struct*, i8, [7 x i8], i32*, i32*, i16*, i8, [256 x i8], [256 x i8], i8, [6 x i8] }>
%"class.std::locale::facet.base" = type <{ i32 (...)**, i32 }>
%struct.__locale_struct = type { [13 x %struct.__locale_data*], i16*, i32*, i32*, [13 x i8*] }
%struct.__locale_data = type opaque
%"class.std::num_put" = type { %"class.std::locale::facet.base", [4 x i8] }
%"class.std::num_get" = type { %"class.std::locale::facet.base", [4 x i8] }

@_ZStL8__ioinit = internal global %"class.std::ios_base::Init" zeroinitializer, align 1
@__dso_handle = external hidden global i8
@_ZSt3cin = external global %"class.std::basic_istream", align 8
@_ZSt4cout = external global %"class.std::basic_ostream", align 8
@.str = private unnamed_addr constant [3 x i8] c"no\00", align 1
@.str.1 = private unnamed_addr constant [4 x i8] c"yes\00", align 1
@llvm.global_ctors = appending global [1 x { i32, void ()*, i8* }] [{ i32, void ()*, i8* } { i32 65535, void ()* @_GLOBAL__sub_I_1952.cpp, i8* null }]

declare void @_ZNSt8ios_base4InitC1Ev(%"class.std::ios_base::Init"* nonnull align 1 dereferenceable(1)) unnamed_addr #0

; Function Attrs: nounwind
declare void @_ZNSt8ios_base4InitD1Ev(%"class.std::ios_base::Init"* nonnull align 1 dereferenceable(1)) unnamed_addr #1

; Function Attrs: nofree nounwind
declare i32 @__cxa_atexit(void (i8*)*, i8*, i8*) local_unnamed_addr #2

; Function Attrs: mustprogress norecurse sspstrong uwtable
define dso_local i32 @main() local_unnamed_addr #3 {
  %1 = alloca i32, align 4
  %2 = alloca i32, align 4
  %3 = bitcast i32* %1 to i8*
  call void @llvm.lifetime.start.p0i8(i64 4, i8* nonnull %3) #8
  %4 = bitcast i32* %2 to i8*
  call void @llvm.lifetime.start.p0i8(i64 4, i8* nonnull %4) #8
  %5 = call nonnull align 8 dereferenceable(16) %"class.std::basic_istream"* @_ZNSirsERi(%"class.std::basic_istream"* nonnull align 8 dereferenceable(16) @_ZSt3cin, i32* nonnull align 4 dereferenceable(4) %1)
  %6 = call nonnull align 8 dereferenceable(16) %"class.std::basic_istream"* @_ZNSirsERi(%"class.std::basic_istream"* nonnull align 8 dereferenceable(16) %5, i32* nonnull align 4 dereferenceable(4) %2)
  %7 = load i32, i32* %1, align 4, !tbaa !5
  %8 = zext i32 %7 to i64
  %9 = call i8* @llvm.stacksave()
  %10 = alloca i32, i64 %8, align 16
  %11 = load i32, i32* %1, align 4, !tbaa !5
  %12 = icmp sgt i32 %11, 0
  br i1 %12, label %25, label %150

13:                                               ; preds = %25
  %14 = load i32, i32* %2, align 4
  %15 = icmp sgt i32 %30, 1
  br i1 %15, label %16, label %150

16:                                               ; preds = %13
  %17 = zext i32 %30 to i64
  %18 = add nsw i32 %30, -1
  %19 = zext i32 %18 to i64
  %20 = zext i32 %30 to i64
  %21 = insertelement <4 x i32> poison, i32 %14, i32 0
  %22 = shufflevector <4 x i32> %21, <4 x i32> poison, <4 x i32> zeroinitializer
  %23 = insertelement <4 x i32> poison, i32 %14, i32 0
  %24 = shufflevector <4 x i32> %23, <4 x i32> poison, <4 x i32> zeroinitializer
  br label %37

25:                                               ; preds = %0, %25
  %26 = phi i64 [ %29, %25 ], [ 0, %0 ]
  %27 = getelementptr inbounds i32, i32* %10, i64 %26
  %28 = call nonnull align 8 dereferenceable(16) %"class.std::basic_istream"* @_ZNSirsERi(%"class.std::basic_istream"* nonnull align 8 dereferenceable(16) @_ZSt3cin, i32* nonnull align 4 dereferenceable(4) %27)
  %29 = add nuw nsw i64 %26, 1
  %30 = load i32, i32* %1, align 4, !tbaa !5
  %31 = sext i32 %30 to i64
  %32 = icmp slt i64 %29, %31
  br i1 %32, label %25, label %13, !llvm.loop !9

33:                                               ; preds = %137, %128, %37
  %34 = phi i32 [ %40, %37 ], [ %132, %128 ], [ %145, %137 ]
  %35 = add nuw nsw i64 %39, 1
  %36 = icmp eq i64 %48, %19
  br i1 %36, label %148, label %37, !llvm.loop !11

37:                                               ; preds = %16, %33
  %38 = phi i64 [ 0, %16 ], [ %48, %33 ]
  %39 = phi i64 [ 1, %16 ], [ %35, %33 ]
  %40 = phi i32 [ 0, %16 ], [ %34, %33 ]
  %41 = xor i64 %38, -1
  %42 = add nsw i64 %41, %20
  %43 = add i64 %42, -8
  %44 = lshr i64 %43, 3
  %45 = add nuw nsw i64 %44, 1
  %46 = xor i64 %38, -1
  %47 = add nsw i64 %46, %20
  %48 = add nuw nsw i64 %38, 1
  %49 = icmp ult i64 %48, %17
  br i1 %49, label %50, label %33

50:                                               ; preds = %37
  %51 = getelementptr inbounds i32, i32* %10, i64 %38
  %52 = load i32, i32* %51, align 4, !tbaa !5
  %53 = icmp ult i64 %47, 8
  br i1 %53, label %134, label %54

54:                                               ; preds = %50
  %55 = and i64 %47, -8
  %56 = add i64 %39, %55
  %57 = insertelement <4 x i32> <i32 poison, i32 0, i32 0, i32 0>, i32 %40, i32 0
  %58 = insertelement <4 x i32> poison, i32 %52, i32 0
  %59 = shufflevector <4 x i32> %58, <4 x i32> poison, <4 x i32> zeroinitializer
  %60 = insertelement <4 x i32> poison, i32 %52, i32 0
  %61 = shufflevector <4 x i32> %60, <4 x i32> poison, <4 x i32> zeroinitializer
  %62 = and i64 %45, 1
  %63 = icmp ult i64 %43, 8
  br i1 %63, label %105, label %64

64:                                               ; preds = %54
  %65 = and i64 %45, 4611686018427387902
  br label %66

66:                                               ; preds = %66, %64
  %67 = phi i64 [ 0, %64 ], [ %102, %66 ]
  %68 = phi <4 x i32> [ %57, %64 ], [ %100, %66 ]
  %69 = phi <4 x i32> [ zeroinitializer, %64 ], [ %101, %66 ]
  %70 = phi i64 [ %65, %64 ], [ %103, %66 ]
  %71 = add i64 %39, %67
  %72 = getelementptr inbounds i32, i32* %10, i64 %71
  %73 = bitcast i32* %72 to <4 x i32>*
  %74 = load <4 x i32>, <4 x i32>* %73, align 4, !tbaa !5
  %75 = getelementptr inbounds i32, i32* %72, i64 4
  %76 = bitcast i32* %75 to <4 x i32>*
  %77 = load <4 x i32>, <4 x i32>* %76, align 4, !tbaa !5
  %78 = add nsw <4 x i32> %74, %59
  %79 = add nsw <4 x i32> %77, %61
  %80 = icmp eq <4 x i32> %78, %22
  %81 = icmp eq <4 x i32> %79, %24
  %82 = zext <4 x i1> %80 to <4 x i32>
  %83 = zext <4 x i1> %81 to <4 x i32>
  %84 = add <4 x i32> %68, %82
  %85 = add <4 x i32> %69, %83
  %86 = or i64 %67, 8
  %87 = add i64 %39, %86
  %88 = getelementptr inbounds i32, i32* %10, i64 %87
  %89 = bitcast i32* %88 to <4 x i32>*
  %90 = load <4 x i32>, <4 x i32>* %89, align 4, !tbaa !5
  %91 = getelementptr inbounds i32, i32* %88, i64 4
  %92 = bitcast i32* %91 to <4 x i32>*
  %93 = load <4 x i32>, <4 x i32>* %92, align 4, !tbaa !5
  %94 = add nsw <4 x i32> %90, %59
  %95 = add nsw <4 x i32> %93, %61
  %96 = icmp eq <4 x i32> %94, %22
  %97 = icmp eq <4 x i32> %95, %24
  %98 = zext <4 x i1> %96 to <4 x i32>
  %99 = zext <4 x i1> %97 to <4 x i32>
  %100 = add <4 x i32> %84, %98
  %101 = add <4 x i32> %85, %99
  %102 = add nuw i64 %67, 16
  %103 = add i64 %70, -2
  %104 = icmp eq i64 %103, 0
  br i1 %104, label %105, label %66, !llvm.loop !12

105:                                              ; preds = %66, %54
  %106 = phi <4 x i32> [ undef, %54 ], [ %100, %66 ]
  %107 = phi <4 x i32> [ undef, %54 ], [ %101, %66 ]
  %108 = phi i64 [ 0, %54 ], [ %102, %66 ]
  %109 = phi <4 x i32> [ %57, %54 ], [ %100, %66 ]
  %110 = phi <4 x i32> [ zeroinitializer, %54 ], [ %101, %66 ]
  %111 = icmp eq i64 %62, 0
  br i1 %111, label %128, label %112

112:                                              ; preds = %105
  %113 = add i64 %39, %108
  %114 = getelementptr inbounds i32, i32* %10, i64 %113
  %115 = getelementptr inbounds i32, i32* %114, i64 4
  %116 = bitcast i32* %115 to <4 x i32>*
  %117 = load <4 x i32>, <4 x i32>* %116, align 4, !tbaa !5
  %118 = add nsw <4 x i32> %117, %61
  %119 = icmp eq <4 x i32> %118, %24
  %120 = zext <4 x i1> %119 to <4 x i32>
  %121 = add <4 x i32> %110, %120
  %122 = bitcast i32* %114 to <4 x i32>*
  %123 = load <4 x i32>, <4 x i32>* %122, align 4, !tbaa !5
  %124 = add nsw <4 x i32> %123, %59
  %125 = icmp eq <4 x i32> %124, %22
  %126 = zext <4 x i1> %125 to <4 x i32>
  %127 = add <4 x i32> %109, %126
  br label %128

128:                                              ; preds = %105, %112
  %129 = phi <4 x i32> [ %106, %105 ], [ %127, %112 ]
  %130 = phi <4 x i32> [ %107, %105 ], [ %121, %112 ]
  %131 = add <4 x i32> %130, %129
  %132 = call i32 @llvm.vector.reduce.add.v4i32(<4 x i32> %131)
  %133 = icmp eq i64 %47, %55
  br i1 %133, label %33, label %134

134:                                              ; preds = %50, %128
  %135 = phi i64 [ %39, %50 ], [ %56, %128 ]
  %136 = phi i32 [ %40, %50 ], [ %132, %128 ]
  br label %137

137:                                              ; preds = %134, %137
  %138 = phi i64 [ %146, %137 ], [ %135, %134 ]
  %139 = phi i32 [ %145, %137 ], [ %136, %134 ]
  %140 = getelementptr inbounds i32, i32* %10, i64 %138
  %141 = load i32, i32* %140, align 4, !tbaa !5
  %142 = add nsw i32 %141, %52
  %143 = icmp eq i32 %142, %14
  %144 = zext i1 %143 to i32
  %145 = add nsw i32 %139, %144
  %146 = add nuw nsw i64 %138, 1
  %147 = icmp eq i64 %146, %20
  br i1 %147, label %33, label %137, !llvm.loop !14

148:                                              ; preds = %33
  %149 = icmp eq i32 %34, 0
  br i1 %149, label %150, label %152

150:                                              ; preds = %0, %13, %148
  %151 = call nonnull align 8 dereferenceable(8) %"class.std::basic_ostream"* @_ZSt16__ostream_insertIcSt11char_traitsIcEERSt13basic_ostreamIT_T0_ES6_PKS3_l(%"class.std::basic_ostream"* nonnull align 8 dereferenceable(8) @_ZSt4cout, i8* nonnull getelementptr inbounds ([3 x i8], [3 x i8]* @.str, i64 0, i64 0), i64 2)
  br label %154

152:                                              ; preds = %148
  %153 = call nonnull align 8 dereferenceable(8) %"class.std::basic_ostream"* @_ZSt16__ostream_insertIcSt11char_traitsIcEERSt13basic_ostreamIT_T0_ES6_PKS3_l(%"class.std::basic_ostream"* nonnull align 8 dereferenceable(8) @_ZSt4cout, i8* nonnull getelementptr inbounds ([4 x i8], [4 x i8]* @.str.1, i64 0, i64 0), i64 3)
  br label %154

154:                                              ; preds = %152, %150
  call void @llvm.stackrestore(i8* %9)
  call void @llvm.lifetime.end.p0i8(i64 4, i8* nonnull %4) #8
  call void @llvm.lifetime.end.p0i8(i64 4, i8* nonnull %3) #8
  ret i32 0
}

; Function Attrs: argmemonly mustprogress nofree nosync nounwind willreturn
declare void @llvm.lifetime.start.p0i8(i64 immarg, i8* nocapture) #4

declare nonnull align 8 dereferenceable(16) %"class.std::basic_istream"* @_ZNSirsERi(%"class.std::basic_istream"* nonnull align 8 dereferenceable(16), i32* nonnull align 4 dereferenceable(4)) local_unnamed_addr #0

; Function Attrs: mustprogress nofree nosync nounwind willreturn
declare i8* @llvm.stacksave() #5

; Function Attrs: argmemonly mustprogress nofree nosync nounwind willreturn
declare void @llvm.lifetime.end.p0i8(i64 immarg, i8* nocapture) #4

; Function Attrs: mustprogress nofree nosync nounwind willreturn
declare void @llvm.stackrestore(i8*) #5

declare nonnull align 8 dereferenceable(8) %"class.std::basic_ostream"* @_ZSt16__ostream_insertIcSt11char_traitsIcEERSt13basic_ostreamIT_T0_ES6_PKS3_l(%"class.std::basic_ostream"* nonnull align 8 dereferenceable(8), i8*, i64) local_unnamed_addr #0

; Function Attrs: sspstrong uwtable
define internal void @_GLOBAL__sub_I_1952.cpp() #6 section ".text.startup" {
  tail call void @_ZNSt8ios_base4InitC1Ev(%"class.std::ios_base::Init"* nonnull align 1 dereferenceable(1) @_ZStL8__ioinit)
  %1 = tail call i32 @__cxa_atexit(void (i8*)* bitcast (void (%"class.std::ios_base::Init"*)* @_ZNSt8ios_base4InitD1Ev to void (i8*)*), i8* getelementptr inbounds (%"class.std::ios_base::Init", %"class.std::ios_base::Init"* @_ZStL8__ioinit, i64 0, i32 0), i8* nonnull @__dso_handle) #8
  ret void
}

; Function Attrs: nofree nosync nounwind readnone willreturn
declare i32 @llvm.vector.reduce.add.v4i32(<4 x i32>) #7


!llvm.module.flags = !{!0, !1, !2, !3}
!llvm.ident = !{!4}

!0 = !{i32 1, !"wchar_size", i32 4}
!1 = !{i32 7, !"PIC Level", i32 2}
!2 = !{i32 7, !"PIE Level", i32 2}
!3 = !{i32 7, !"uwtable", i32 1}
!4 = !{!"clang version 13.0.0"}
!5 = !{!6, !6, i64 0}
!6 = !{!"int", !7, i64 0}
!7 = !{!"omnipotent char", !8, i64 0}
!8 = !{!"Simple C++ TBAA"}
!9 = distinct !{!9, !10}
!10 = !{!"llvm.loop.mustprogress"}
!11 = distinct !{!11, !10}
!12 = distinct !{!12, !10, !13}
!13 = !{!"llvm.loop.isvectorized", i32 1}
!14 = distinct !{!14, !10, !15, !13}
!15 = !{!"llvm.loop.unroll.runtime.disable"}
